target datalayout = "e-m:e-p270:32:32-p271:32:32-p272:64:64-i64:64-i128:128-f80:128-n8:16:32:64-S128"
target triple = "x86_64-pc-linux-gnu"

%struct.prov_aes_ccm_ctx_st = type { %struct.prov_ccm_st, %union.anon.0 }
%struct.prov_ccm_st = type { i8, i64, i64, i64, i64, i64, [16 x i8], [16 x i8], %struct.ccm128_context, ptr, ptr }
%struct.ccm128_context = type { %union.anon, %union.anon, i64, ptr, ptr }
%union.anon = type { [2 x i64] }
%union.anon.0 = type { double, [256 x i8] }
%struct.anon = type { [16 x i8], %struct.aes_key_st }
%struct.aes_key_st = type { [60 x i32], i32 }

@.str = private unnamed_addr constant [62 x i8] c"../openssl/providers/implementations/ciphers/cipher_aes_ccm.c\00", align 1

; Function Attrs: nounwind uwtable
define internal ptr @aes_ccm_dupctx(ptr noundef %0) #0 {
  %2 = alloca ptr, align 8
  %3 = alloca ptr, align 8
  %4 = alloca ptr, align 8
  %5 = alloca ptr, align 8
  %6 = alloca i32, align 4
  store ptr %0, ptr %3, align 8, !tbaa !3
  call void @llvm.lifetime.start.p0(i64 8, ptr %4) #3
  %7 = load ptr, ptr %3, align 8, !tbaa !3
  store ptr %7, ptr %4, align 8, !tbaa !7
  call void @llvm.lifetime.start.p0(i64 8, ptr %5) #3
  store ptr null, ptr %5, align 8, !tbaa !7
  %8 = call i32 @ossl_prov_is_running()
  %9 = icmp ne i32 %8, 0
  br i1 %9, label %11, label %10

10:                                               ; preds = %1
  store ptr null, ptr %2, align 8
  store i32 1, ptr %6, align 4
  br label %30

11:                                               ; preds = %1
  %12 = load ptr, ptr %4, align 8, !tbaa !7
  %13 = icmp eq ptr %12, null
  br i1 %13, label %14, label %15

14:                                               ; preds = %11
  store ptr null, ptr %2, align 8
  store i32 1, ptr %6, align 4
  br label %30

15:                                               ; preds = %11
  %16 = load ptr, ptr %3, align 8, !tbaa !3
  %17 = call noalias ptr @CRYPTO_memdup(ptr noundef %16, i64 noundef 416, ptr noundef @.str, i32 noundef 46)
  store ptr %17, ptr %5, align 8, !tbaa !7
  %18 = load ptr, ptr %5, align 8, !tbaa !7
  %19 = icmp eq ptr %18, null
  br i1 %19, label %20, label %21

20:                                               ; preds = %15
  store ptr null, ptr %2, align 8
  store i32 1, ptr %6, align 4
  br label %30

21:                                               ; preds = %15
  %22 = load ptr, ptr %5, align 8, !tbaa !7
  %23 = getelementptr inbounds nuw %struct.prov_aes_ccm_ctx_st, ptr %22, i32 0, i32 1
  %24 = getelementptr inbounds nuw %struct.anon, ptr %23, i32 0, i32 1
  %25 = load ptr, ptr %5, align 8, !tbaa !7
  %26 = getelementptr inbounds nuw %struct.prov_aes_ccm_ctx_st, ptr %25, i32 0, i32 0
  %27 = getelementptr inbounds nuw %struct.prov_ccm_st, ptr %26, i32 0, i32 8
  %28 = getelementptr inbounds nuw %struct.ccm128_context, ptr %27, i32 0, i32 4
  store ptr %24, ptr %28, align 8, !tbaa !13
  %29 = load ptr, ptr %5, align 8, !tbaa !7
  store ptr %29, ptr %2, align 8
  store i32 1, ptr %6, align 4
  br label %30

30:                                               ; preds = %21, %20, %14, %10
  call void @llvm.lifetime.end.p0(i64 8, ptr %5) #3
  call void @llvm.lifetime.end.p0(i64 8, ptr %4) #3
  %31 = load ptr, ptr %2, align 8
  ret ptr %31
}

; Function Attrs: nounwind uwtable
define internal ptr @aes128ccm_dupctx(ptr noundef %0) #0 {
  %2 = alloca ptr, align 8
  store ptr %0, ptr %2, align 8, !tbaa !3
  %3 = load ptr, ptr %2, align 8, !tbaa !3
  %4 = call ptr @aes_ccm_dupctx(ptr noundef %3)
  ret ptr %4
}