; Function Attrs: nounwind uwtable
define internal ptr @aes128ccm_dupctx(ptr noundef %0) #0 {
  %2 = tail call i32 @ossl_prov_is_running() #2
  %.not.i = icmp eq i32 %2, 0
  %3 = icmp eq ptr %0, null
  %or.cond.i = or i1 %3, %.not.i
  br i1 %or.cond.i, label %aes_ccm_dupctx.exit, label %4

4:                                                ; preds = %1
  %5 = tail call noalias ptr @CRYPTO_memdup(ptr noundef nonnull %0, i64 noundef 416, ptr noundef nonnull @.str, i32 noundef 46) #2
  %6 = icmp eq ptr %5, null
  br i1 %6, label %aes_ccm_dupctx.exit, label %7

7:                                                ; preds = %4
  %8 = getelementptr inbounds nuw i8, ptr %5, i64 168
  %9 = getelementptr inbounds nuw i8, ptr %5, i64 128
  store ptr %8, ptr %9, align 8, !tbaa !3
  br label %aes_ccm_dupctx.exit

aes_ccm_dupctx.exit:                              ; preds = %1, %4, %7
  %.0.i = phi ptr [ %5, %7 ], [ null, %1 ], [ null, %4 ]
  ret ptr %.0.i
}